; Function Attrs: mustprogress uwtable
define void @_ZN7rocksdb20RangeTreeLockManager11on_escalateEmPKN4toku8locktreeERKNS1_12range_bufferEPv(i64 noundef %txnid, ptr noundef %lt, ptr noundef nonnull align 8 dereferenceable(60) %buffer, ptr nocapture readnone %0) #2 align 2 {
entry:
  %1 = inttoptr i64 %txnid to ptr
  %tracked_locks_.i = getelementptr inbounds i8, ptr %1, i64 184
  %2 = load ptr, ptr %tracked_locks_.i, align 8
  %range_list_.i = getelementptr inbounds i8, ptr %2, i64 8
  %3 = load ptr, ptr %range_list_.i, align 8
  tail call void @_ZN7rocksdb13RangeLockList12ReplaceLocksEPKN4toku8locktreeERKNS1_12range_bufferE(ptr noundef nonnull align 8 dereferenceable(97) %3, ptr noundef %lt, ptr noundef nonnull align 8 dereferenceable(60) %buffer)
  ret void
}